(lp0
(lp1
F1.0
aF-1.0
aI00
aa(lp2
F1.0000000000000002
aF1.0
aI00
aa(lp3
F-0.9999999999999998
aF1.0000000000000002
aI00
aa(lp4
F-1.0000000000000002
aF-0.9999999999999998
aI00
aa(lp5
F2.0
aF-2.000000000000001
aI00
aa(lp6
F2.0000000000000013
aF1.9999999999999991
aI00
aa(lp7
F-1.9999999999999987
aF2.0000000000000004
aI00
aa(lp8
F-2.0000000000000004
aF-1.9999999999999996
aI00
aa(lp9
F3.0
aF-3.000000000000003
aI00
aa(lp10
F3.000000000000003
aF2.999999999999997
aI00
aa(lp11
F-2.999999999999997
aF3.0000000000000004
aI00
aa(lp12
F-3.000000000000001
aF-2.9999999999999996
aI00
aa(lp13
F4.0
aF-4.000000000000006
aI00
aa(lp14
F4.000000000000006
aF3.999999999999994
aI00
aa(lp15
F-3.999999999999994
aF4.000000000000001
aI00
aa(lp16
F-4.000000000000001
aF-3.999999999999999
aI00
aa(lp17
F5.0
aF-5.00000000000001
aI00
aa(lp18
F5.000000000000011
aF4.99999999999999
aI00
aa(lp19
F-4.999999999999989
aF5.000000000000001
aI00
aa(lp20
F-5.000000000000001
aF-4.999999999999999
aI00
aa(lp21
F6.0
aF-6.000000000000015
aI00
aa(lp22
F6.000000000000015
aF5.999999999999985
aI00
aa(lp23
F-5.999999999999985
aF6.000000000000001
aI00
aa(lp24
F-6.000000000000002
aF-5.999999999999999
aI00
aa(lp25
F7.0
aF-7.00000000000002
aI00
aa(lp26
F7.000000000000021
aF6.99999999999998
aI00
aa(lp27
F-6.999999999999979
aF7.000000000000002
aI00
aa(lp28
F-7.000000000000002
aF-6.999999999999998
aI00
aa(lp29
F8.0
aF-8.000000000000027
aI00
aa(lp30
F8.000000000000028
aF7.999999999999973
aI00
aa(lp31
F-7.999999999999972
aF8.000000000000004
aI00
aa(lp32
F-8.000000000000002
aF-7.9999999999999964
aI00
aa(lp33
F9.0
aF-9.000000000000036
aI00
aa(lp34
F9.000000000000036
aF8.999999999999964
aI00
aa(lp35
F-8.999999999999964
aF9.000000000000002
aI00
aa(lp36
F-9.000000000000004
aF-8.999999999999998
aI00
aa(lp37
F10.0
aF-10.000000000000044
aI00
aa(lp38
F10.000000000000046
aF9.999999999999956
aI00
aa(lp39
F-9.999999999999954
aF10.000000000000002
aI00
aa(lp40
F-10.000000000000002
aF-9.999999999999998
aI00
aa.