(lp0
(lp1
F0.0
aF0.0
aI00
aa(lp2
F3.8302222155948904
aF3.2139380484326963
aI00
aa(lp3
F11.490666646784671
aF9.641814145298092
aI00
aa(lp4
F22.98133329356934
aF19.283628290596187
aI00
aa(lp5
F38.3022221559489
aF32.139380484326985
aI01
aa(lp6
F0.0
aF0.0
aI00
aa(lp7
F3.009075115760242
aF3.993177550236464
aI00
aa(lp8
F13.002983385951199
aF4.342172517261475
aI00
aa(lp9
F22.843868820808815
aF-6.978471186080104
aI00
aa(lp10
F19.370905267470217
aF-26.67462624632427
aI00
aa(lp11
F-2.4945874110146775
aF-38.79486675248271
aI01
aa(lp12
F0.0
aF0.0
aI00
aa(lp13
F3.6567685080958534
aF-3.409991800312491
aI00
aa(lp14
F-3.163215092529129
aF-10.723528816504198
aI00
aa(lp15
F-14.13352061681669
aF-0.4935534155667245
aI00
aa(lp16
F-0.4935534155667245
aF14.13352061681669
aI00
aa(lp17
F17.79028912491254
aF-2.916438384745767
aI00
aa(lp18
F-2.6696616769624057
aF-24.85704943332089
aI00
aa(lp19
F-28.26704123363338
aF-0.987106831133449
aI00
aa(lp20
F-0.987106831133449
aF28.26704123363338
aI00
aa(lp21
F31.923809741729233
aF-2.4228849691790444
aI00
aa(lp22
F-2.1761082613956795
aF-38.99057005013758
aI01
aa(lp23
F0.0
aF0.0
aI00
aa(lp24
F1.6278407722857837
aF4.7275928779965835
aI00
aa(lp25
F-1.6278407722857828
aF-4.7275928779965835
aI00
aa(lp26
F3.255681544571565
aF9.455185755993167
aI00
aa(lp27
F-3.255681544571564
aF-9.455185755993167
aI00
aa(lp28
F4.883522316857343
aF14.182778633989752
aI00
aa(lp29
F-4.883522316857343
aF-14.182778633989749
aI00
aa(lp30
F6.511363089143121
aF18.910371511986334
aI00
aa(lp31
F-6.511363089143119
aF-18.910371511986334
aI00
aa(lp32
F8.139203861428895
aF23.63796438998292
aI00
aa(lp33
F-8.139203861428895
aF-23.63796438998292
aI00
aa(lp34
F9.767044633714667
aF28.365557267979504
aI00
aa(lp35
F-9.767044633714667
aF-28.365557267979497
aI00
aa(lp36
F11.394885406000435
aF33.09315014597609
aI00
aa(lp37
F-11.394885406000435
aF-33.093150145976075
aI00
aa(lp38
F13.022726178286204
aF37.820743023972675
aI01
aa(lp39
F0.0
aF0.0
aI00
aa(lp40
F-4.635919272833936
aF1.8730329670795611
aI00
aa(lp41
F3.2441882632332826
aF8.029647720336145
aI00
aa(lp42
F5.331784777634271
aF-6.82437331078741
aI00
aa(lp43
F-13.211892313701489
aF0.6677585575308198
aI00
aa(lp44
F6.488376526466551
aF16.0592954406723
aI00
aa(lp45
F10.663569555268552
aF-13.648746621574809
aI00
aa(lp46
F-21.787865354569036
aF-0.5375158520179326
aI00
aa(lp47
F9.732564789699808
aF24.088943161008466
aI00
aa(lp48
F15.99535433290285
aF-20.473119932362202
aI00
aa(lp49
F-30.363838395436588
aF-1.7427902615667001
aI00
aa(lp50
F12.976753052933049
aF32.11859088134463
aI00
aa(lp51
F21.32713911053715
aF-27.29749324314959
aI00
aa(lp52
F-38.93981143630414
aF-2.9480646711154854
aI01
aa(lp53
F0.0
aF0.0
aI00
aa(lp54
F-4.972609476841367
aF-0.5226423163382653
aI00
aa(lp55
F4.972609476841367
aF0.5226423163382664
aI00
aa(lp56
F-9.945218953682735
aF-1.045284632676533
aI00
aa(lp57
F9.945218953682732
aF1.0452846326765357
aI00
aa(lp58
F-14.917828430524102
aF-1.5679269490148031
aI00
aa(lp59
F14.917828430524102
aF1.5679269490148071
aI00
aa(lp60
F-19.890437907365467
aF-2.090569265353076
aI00
aa(lp61
F19.890437907365467
aF2.090569265353081
aI00
aa(lp62
F-24.863047384206837
aF-2.613211581691351
aI00
aa(lp63
F24.86304738420683
aF2.613211581691358
aI00
aa(lp64
F-29.835656861048207
aF-3.1358538980296284
aI00
aa(lp65
F29.8356568610482
aF3.1358538980296373
aI00
aa(lp66
F-34.80826633788957
aF-3.6584962143679087
aI00
aa(lp67
F34.80826633788957
aF3.6584962143679185
aI00
aa(lp68
F-39.78087581473094
aF-4.181138530706192
aI01
aa(lp69
F0.0
aF0.0
aI00
aa(lp70
F4.90813591723832
aF-0.9540449768827233
aI00
aa(lp71
F10.50006495194579
aF-9.244420702433139
aI00
aa(lp72
F7.637930021297623
aF-23.9688284541481
aI00
aa(lp73
F-8.942821429803203
aF-35.15268652356304
aI00
aa(lp74
F-33.483501015994804
aF-30.382461639149433
aI00
aa(lp75
F-50.25928812011722
aF-5.511334462498194
aI01
aa(lp76
F0.0
aF0.0
aI00
aa(lp77
F-3.2802951449525386
aF-3.7735479011138584
aI00
aa(lp78
F-10.827390947180255
aF2.787042388791219
aI00
aa(lp79
F-0.9865055123226405
aF14.107686092132795
aI00
aa(lp80
F14.107686092132793
aF0.9865055123226405
aI00
aa(lp81
F-2.2937896326299008
aF-17.881233993246653
aI00
aa(lp82
F-24.93507703931305
aF1.800536876468577
aI00
aa(lp83
F-1.973011024645281
aF28.215372184265586
aI00
aa(lp84
F28.215372184265586
aF1.9730110246452774
aI00
aa(lp85
F-1.307284120307262
aF-31.98892008537945
aI00
aa(lp86
F-39.04276313144585
aF0.8140313641459365
aI01
aa(lp87
F0.0
aF0.0
aI00
aa(lp88
F4.851478631379982
aF1.2096094779983386
aI00
aa(lp89
F14.123317177047856
aF-2.536456456160782
aI00
aa(lp90
F22.07210614054593
aF-15.257177898507173
aI00
aa(lp91
F20.67697666566342
aF-35.20845890370366
aI00
aa(lp92
F4.607286423499936
aF-54.359569981678106
aI01
aa(lp93
F0.0
aF0.0
aI00
aa(lp94
F0.6093467170257374
aF4.96273075820661
aI00
aa(lp95
F10.534808233438957
aF3.744037324155136
aI00
aa(lp96
F8.706768082361746
aF-11.144154950464692
aI00
aa(lp97
F-11.144154950464694
aF-8.706768082361746
aI00
aa(lp98
F-8.097421365336013
aF16.106885708671307
aI00
aa(lp99
F21.678963183903647
aF12.45080540651689
aI00
aa(lp100
F17.413536164723496
aF-22.288309900929377
aI00
aa(lp101
F-22.288309900929384
aF-17.413536164723496
aI00
aa(lp102
F-16.804189447697766
aF27.251040659135995
aI00
aa(lp103
F32.823118134368336
aF21.157573488878647
aI00
aa(lp104
F26.120304247085254
aF-33.43246485139406
aI00
aa(lp105
F-33.43246485139406
aF-26.120304247085247
aI00
aa(lp106
F-25.510957530059514
aF38.39519560960069
aI01
aa.